; Function Attrs: mustprogress nofree norecurse nosync nounwind willreturn memory(read, inaccessiblemem: none) uwtable
define hidden noundef i32 @_ZN5ceres8internal15SumSquaredSizesERKSt6vectorINS0_5BlockESaIS2_EE(ptr noundef nonnull readonly align 8 captures(none) dereferenceable(24) %0) local_unnamed_addr #5 {
  %2 = load ptr, ptr %0, align 8, !tbaa !33
  %3 = getelementptr inbounds nuw i8, ptr %0, i64 8
  %4 = load ptr, ptr %3, align 8, !tbaa !33
  %.not9 = icmp eq ptr %2, %4
  br i1 %.not9, label %._crit_edge, label %.lr.ph

._crit_edge:                                      ; preds = %.lr.ph, %1
  %.0.lcssa = phi i32 [ 0, %1 ], [ %7, %.lr.ph ]
  ret i32 %.0.lcssa

.lr.ph:                                           ; preds = %1, %.lr.ph
  %.011 = phi i32 [ %7, %.lr.ph ], [ 0, %1 ]
  %.sroa.06.010 = phi ptr [ %8, %.lr.ph ], [ %2, %1 ]
  %5 = load i32, ptr %.sroa.06.010, align 4, !tbaa !22
  %6 = mul nsw i32 %5, %5
  %7 = add nuw nsw i32 %6, %.011
  %8 = getelementptr inbounds nuw i8, ptr %.sroa.06.010, i64 8
  %.not = icmp eq ptr %8, %4
  br i1 %.not, label %._crit_edge, label %.lr.ph
}